; Function Attrs: mustprogress nofree norecurse nosync nounwind willreturn memory(read, argmem: readwrite, inaccessiblemem: none) uwtable
define hidden void @_ZN3nla25factorization_factory_impC2ERKNS_5monicERKNS_4coreE(ptr noundef nonnull writeonly align 8 captures(none) dereferenceable(48) initializes((0, 48)) %0, ptr noundef nonnull align 8 dereferenceable(34) %1, ptr noundef nonnull align 8 dereferenceable(4736) %2) unnamed_addr #4 align 2 personality ptr @__gxx_personality_v0 {
  %4 = getelementptr inbounds nuw i8, ptr %1, i64 16
  %5 = load i32, ptr %1, align 8, !tbaa !3
  %6 = getelementptr inbounds nuw i8, ptr %2, i64 4544
  %7 = getelementptr inbounds nuw i8, ptr %2, i64 4552
  %8 = load ptr, ptr %7, align 8, !tbaa !12
  %9 = zext i32 %5 to i64
  %10 = getelementptr inbounds nuw i32, ptr %8, i64 %9
  %11 = load i32, ptr %10, align 4, !tbaa !13
  %12 = load ptr, ptr %6, align 8, !tbaa !14
  %13 = zext i32 %11 to i64
  %14 = getelementptr inbounds nuw %"class.nla::monic", ptr %12, i64 %13
  %15 = getelementptr inbounds nuw i8, ptr %0, i64 8
  store ptr %4, ptr %15, align 8, !tbaa !17
  %16 = getelementptr inbounds nuw i8, ptr %0, i64 16
  store ptr %14, ptr %16, align 8, !tbaa !19
  store ptr getelementptr inbounds nuw inrange(-16, 40) (i8, ptr @_ZTVN3nla25factorization_factory_impE, i64 16), ptr %0, align 8, !tbaa !21
  %17 = getelementptr inbounds nuw i8, ptr %0, i64 24
  store ptr %2, ptr %17, align 8, !tbaa !23
  %18 = getelementptr inbounds nuw i8, ptr %0, i64 32
  store ptr %14, ptr %18, align 8, !tbaa !25
  %19 = getelementptr inbounds nuw i8, ptr %0, i64 40
  store ptr %1, ptr %19, align 8, !tbaa !25
  ret void
}